
Source: popcorn.s
5 2000  A9 01    L2000   LDA #$01
6 2002  85 09            STA BOOT?
7 2004  A9 00            LDA #$00
8 2006  85 0C            STA DOSINI
9 2008  A9 20            LDA #$20
10 200A  85 0D            STA DOSINI+1
11 200C  A9 0E            LDA #$0e
12 200E  8D C5 02         STA COLOR1
13 2011  A9 32            LDA #$32
14 2013  8D C6 02         STA COLOR2
15 2016  20 6E 2C         JSR L2C74
16 2019  A9 00            LDA #$00
17 201B  8D 2F 02         STA SDMCTL
18 201E  85 9C            STA MVTA+1
19 2020  8D 08 D2         STA ALLPOT
20 2023  8D 01 D2         STA POT1
21 2026  8D 03 D2         STA POT3
22 2029  A2 29            LDX #$29
23 202B  95 80    L202B   STA LOMEM,X
24 202D  CA               DEX
25 202E  10 FB            BPL L202b
26 2030  20 B7 24         JSR L24B7
27 2033  20 E0 23         JSR L23E0
28 2036  A9 D6            LDA #$d6
29 2038  85 80            STA LOMEM
30 203A  A9 0F            LDA #$0f
31 203C  85 81            STA LOMEM+1
32 203E  A2 05            LDX #$05
33 2040  20 9F 2D         JSR L2DA5
34 2043  A2 00            LDX #$00
35 2045  BD A7 27 L2045   LDA L27AD,X
36 2048  9D 78 10         STA $1078,X
37 204B  E8               INX
38 204C  D0 F7            BNE L2045
39 204E  BD A7 28 L204E   LDA L28AD,X
40 2051  9D 78 11         STA $1178,X
41 2054  E8               INX
42 2055  E0 18            CPX #$18
43 2057  D0 F5            BNE L204e
44 2059  A2 00            LDX #$00
45 205B  BD BF 28 L205B   LDA L28C5,X
46 205E  9D FF 12         STA $12ff,X
47 2061  E8               INX
48 2062  E0 1B            CPX #$1b
49 2064  D0 F5            BNE L205b
50 2066  A2 17            LDX #$17
51 2068  BD D9 28 L2068   LDA L28DD+2,X
52 206B  9D D7 0F         STA $0fd7,X
53 206E  CA               DEX
54 206F  D0 F7            BNE L2068
55 2071  20 43 24         JSR L2443
56 2074  A9 30            LDA #$30
57 2076  8D F4 02         STA CHBAS
58 2079  A9 FE            LDA #$fe
59 207B  8D 00 02         STA VDSLST
60 207E  A9 29            LDA #$29
61 2080  8D 01 02         STA VDSLST+1
62 2083  A9 F7            LDA #$f7
63 2085  8D 30 02         STA SDLSTL
64 2088  A9 28            LDA #$28
65 208A  8D 31 02         STA SDLSTH
66 208D  A9 C0            LDA #$c0
67 208F  8D 0E D4         STA NMIEN
68 2092  A9 3A            LDA #$3a
69 2094  8D 2F 02         STA SDMCTL
70 2097  20 F9 22         JSR L22F9
71 209A  A9 01            LDA #$01
72 209C  85 9A            STA MVFA+1
73 209E  A9 02            LDA #$02
74 20A0  85 A1            STA TSLNUM+1
75 20A2  A9 11            LDA #$11
76 20A4  8D F1 0F         STA $0ff1
77 20A7  A9 03            LDA #$03
78 20A9  85 A2            STA MVLNG
79 20AB  8D 0F D2         STA SKSTAT
80 20AE  20 3D 23         JSR L233D
81 20B1  AD 1F D0 L20B1   LDA CONSOL
82 20B4  C9 06            CMP #$06
83 20B6  F0 10            BEQ L20c8
84 20B8  C9 05            CMP #$05
85 20BA  D0 07            BNE L20c3
86 20BC  85 9A            STA MVFA+1
87 20BE  A9 15            LDA #$15
88 20C0  8D F1 0F         STA $0ff1
89 20C3  AD 84 02 L20C3   LDA STRIG0
90 20C6  D0 E9            BNE L20b1
91 20C8  A9 1E    L20C8   LDA #$1e
92 20CA  20 9D 24         JSR L249D
93 20CD  AD 1F D0 L20CD   LDA CONSOL
94 20D0  C9 06            CMP #$06
95 20D2  F0 F9            BEQ L20cd
96 20D4  20 10 24         JSR L2410
97 20D7  20 ED 23         JSR L23ED
98 20DA  A9 88            LDA #$88
99 20DC  85 9D            STA CPC
100 20DE  8D 0A D0         STA M2PL
101 20E1  A9 40            LDA #$40
102 20E3  8D 0E D4         STA NMIEN
103 20E6  A9 01            LDA #$01
104 20E8  8D 6F 02         STA GPRIOR
105 20EB  8D 09 D0         STA M1PL
106 20EE  A9 03            LDA #$03
107 20F0  8D 1D D0         STA GRACTL
108 20F3  A9 00            LDA #$00
109 20F5  8D 07 D4         STA PMBASE
110 20F8  20 24 24         JSR L2424
111 20FB  20 04 24         JSR L2404
112 20FE  A9 77            LDA #$77
113 2100  85 9C            STA MVTA+1
114 2102  8D 1E D0         STA HITCLR
115 2105  A4 9A            LDY MVFA+1
116 2107  B9 74 24         LDA L2474,Y
117 210A  85 93            STA $93
118 210C  A9 04            LDA #$04
119 210E  A2 12            LDX #$12
120 2110  A0 09            LDY #$09
121 2112  20 BC 2C         JSR L2CC2
122 2115  A9 06            LDA #$06
123 2117  A2 14            LDX #$14
124 2119  A0 09            LDY #$09
125 211B  20 BC 2C         JSR L2CC2
126 211E  AD 1F D0 L211E   LDA CONSOL
127 2121  C9 06            CMP #$06
128 2123  D0 0A            BNE L212f
129 2125  AD 1F D0 L2125   LDA CONSOL
130 2128  C9 06            CMP #$06
131 212A  F0 F9            BEQ L2125
132 212C  4C 00 20         JMP L2000
133 212F  AD FC 02 L212F   LDA CH
134 2132  30 15            BMI L2149
135 2134  A9 FF    L2134   LDA #$ff
136 2136  8D FC 02         STA CH
137 2139  A5 A4            LDA ECSIZE
138 213B  45 01            EOR NGFLAG
139 213D  85 A4            STA ECSIZE
140 213F  F0 08            BEQ L2149
141 2141  AD FC 02 L2141   LDA CH
142 2144  30 FB            BMI L2141
143 2146  4C 34 21         JMP L2134
144 2149  20 65 24 L2149   JSR L2465
145 214C  20 77 2C         JSR L2C7D
146 214F  A5 99            LDA MVFA
147 2151  D0 09            BNE L215c
148 2153  AD 0A D2         LDA RANDOM
149 2156  C9 14            CMP #$14
150 2158  90 1B            BCC L2175
151 215A  B0 04            BCS L2160
152 215C  C6 99    L215C   DEC MVFA
153 215E  D0 12            BNE L2172
154 2160  A9 08    L2160   LDA #$08
155 2162  A0 01            LDY #$01
156 2164  A2 12            LDX #$12
157 2166  20 BC 2C         JSR L2CC2
158 2169  A9 0A            LDA #$0a
159 216B  A0 01            LDY #$01
160 216D  A2 14            LDX #$14
161 216F  20 BC 2C         JSR L2CC2
162 2172  4C DE 21 L2172   JMP L21DE
163 2175  A9 0C    L2175   LDA #$0c
164 2177  A2 12            LDX #$12
165 2179  A0 01            LDY #$01
166 217B  20 BC 2C         JSR L2CC2
167 217E  A9 0E            LDA #$0e
168 2180  A2 14            LDX #$14
169 2182  A0 01            LDY #$01
170 2184  20 BC 2C         JSR L2CC2
171 2187  A9 01            LDA #$01
172 2189  85 84            STA VNTD
173 218B  A5 9A            LDA MVFA+1
174 218D  0A               ASL A
175 218E  18               CLC
176 218F  69 04            ADC #$04
177 2191  85 99            STA MVFA
178 2193  A2 00            LDX #$00
179 2195  BD 00 06 L2195   LDA $0600,X
180 2198  F0 09            BEQ L21a3
181 219A  E8               INX
182 219B  E8               INX
183 219C  E0 0C            CPX #$0c
184 219E  F0 3E            BEQ L21de
185 21A0  4C 95 21         JMP L2195
186 21A3  86 94    L21A3   STX COX
187 21A5  A5 9A            LDA MVFA+1
188 21A7  0A               ASL A
189 21A8  85 96            STA POKADR+1
190 21AA  A2 01            LDX #$01
191 21AC  BD 00 06 L21AC   LDA $0600,X
192 21AF  F0 04            BEQ L21b5
193 21B1  C5 96            CMP POKADR+1
194 21B3  90 29            BCC L21de
195 21B5  E8       L21B5   INX
196 21B6  E8               INX
197 21B7  E0 0D            CPX #$0d
198 21B9  F0 F1            BEQ L21ac
199 21BB  A6 94            LDX COX
200 21BD  A0 0A    L21BD   LDY #$0a
201 21BF  A9 0E            LDA #$0e
202 21C1  20 AA 24         JSR L24AA
203 21C4  C9 10            CMP #$10
204 21C6  90 04            BCC L21cc
205 21C8  C9 16            CMP #$16
206 21CA  90 F1            BCC L21bd
207 21CC  9D 00 06 L21CC   STA $0600,X
208 21CF  85 84            STA VNTD
209 21D1  A9 0C            LDA #$0c
210 21D3  A0 01            LDY #$01
211 21D5  20 AA 24         JSR L24AA
212 21D8  E8               INX
213 21D9  9D 00 06         STA $0600,X
214 21DC  86 A3            STX MVLNG+1
215 21DE  AD 04 D0 L21DE   LDA P1PF
216 21E1  D0 03            BNE L21e6
217 21E3  4C CB 22         JMP L22CB
218 21E6  85 82    L21E6   STA VNTP
219 21E8  20 57 2D         JSR L2D5D
220 21EB  A4 9A            LDY MVFA+1
221 21ED  C0 06            CPY #$06
222 21EF  90 02            BCC L21f3
223 21F1  A0 05            LDY #$05
224 21F3  20 09 23 L21F3   JSR L2309
225 21F6  8D 1E D0         STA HITCLR
226 21F9  E6 9B            INC MVTA
227 21FB  A4 9A            LDY MVFA+1
228 21FD  A5 9B            LDA MVTA
229 21FF  C0 05            CPY #$05
230 2201  B0 07            BCS L220a
231 2203  C9 19            CMP #$19
232 2205  B0 07            BCS L220e
233 2207  4C CB 22 L2207   JMP L22CB
234 220A  C9 32    L220A   CMP #$32
235 220C  90 F9            BCC L2207
236 220E  A9 08    L220E   LDA #$08
237 2210  A0 01            LDY #$01
238 2212  A2 12            LDX #$12
239 2214  20 BC 2C         JSR L2CC2
240 2217  A9 0A            LDA #$0a
241 2219  A0 01            LDY #$01
242 221B  A2 14            LDX #$14
243 221D  20 BC 2C         JSR L2CC2
244 2220  A9 06            LDA #$06
245 2222  85 94            STA COX
246 2224  A9 28    L2224   LDA #$28
247 2226  85 93            STA $93
248 2228  20 65 24         JSR L2465
249 222B  A9 AF            LDA #$af
250 222D  85 96            STA POKADR+1
251 222F  C6 94            DEC COX
252 2231  A5 94            LDA COX
253 2233  F0 1B            BEQ L2250
254 2235  A0 05            LDY #$05
255 2237  20 09 23         JSR L2309
256 223A  C6 96    L223A   DEC POKADR+1
257 223C  A5 96            LDA POKADR+1
258 223E  C9 A0            CMP #$a0
259 2240  90 E2            BCC L2224
260 2242  8D 01 D2         STA POT1
261 2245  A9 0C            LDA #$0c
262 2247  8D 00 D2         STA POT0
263 224A  20 88 24         JSR L2488
264 224D  4C 3A 22         JMP L223A
265 2250  A9 00    L2250   LDA #$00
266 2252  85 9B            STA MVTA
267 2254  8D 01 D2         STA POT1
268 2257  A4 9A            LDY MVFA+1
269 2259  C0 13            CPY #$13
270 225B  F0 69            BEQ L22c6
271 225D  E6 9A            INC MVFA+1
272 225F  A4 9A            LDY MVFA+1
273 2261  C0 04            CPY #$04
274 2263  F0 0C            BEQ L2271
275 2265  C0 09            CPY #$09
276 2267  F0 08            BEQ L2271
277 2269  C0 0D            CPY #$0d
278 226B  F0 04            BEQ L2271
279 226D  C0 11            CPY #$11
280 226F  D0 3D            BNE L22ae
281 2271  8C 70 26 L2271   STY L2675+1
282 2274  20 B7 24         JSR L24B7
283 2277  20 CE 24         JSR L24CE
284 227A  A9 3A            LDA #$3a
285 227C  8D 2F 02         STA SDMCTL
286 227F  20 10 24         JSR L2410
287 2282  A9 04            LDA #$04
288 2284  A2 12            LDX #$12
289 2286  A0 09            LDY #$09
290 2288  20 BC 2C         JSR L2CC2
291 228B  A9 06            LDA #$06
292 228D  A2 14            LDX #$14
293 228F  A0 09            LDY #$09
294 2291  20 BC 2C         JSR L2CC2
295 2294  A9 08            LDA #$08
296 2296  A0 01            LDY #$01
297 2298  A2 12            LDX #$12
298 229A  20 BC 2C         JSR L2CC2
299 229D  A9 0A            LDA #$0a
300 229F  A0 01            LDY #$01
301 22A1  A2 14            LDX #$14
302 22A3  20 BC 2C         JSR L2CC2
303 22A6  A9 3C            LDA #$3c
304 22A8  20 9D 24         JSR L249D
305 22AB  AC 70 26         LDY L2675+1
306 22AE  C0 13    L22AE   CPY #$13
307 22B0  F0 11            BEQ L22c3
308 22B2  C0 0A            CPY #$0a
309 22B4  D0 0D            BNE L22c3
310 22B6  A9 10            LDA #$10
311 22B8  8D F1 0F         STA $0ff1
312 22BB  A9 11            LDA #$11
313 22BD  8D F0 0F         STA $0ff0
314 22C0  4C C6 22         JMP L22C6
315 22C3  EE F1 0F L22C3   INC $0ff1
316 22C6  B9 74 24 L22C6   LDA L2474,Y
317 22C9  85 93            STA $93
318 22CB  A5 9F    L22CB   LDA LLNGTH
319 22CD  C9 03            CMP #$03
320 22CF  B0 03            BCS L22d4
321 22D1  4C 1E 21         JMP L211E
322 22D4  20 52 23 L22D4   JSR L2352
323 22D7  A9 00            LDA #$00
324 22D9  85 9F            STA LLNGTH
325 22DB  C6 A2            DEC MVLNG
326 22DD  A5 A2            LDA MVLNG
327 22DF  F0 0D            BEQ L22ee
328 22E1  20 3D 23         JSR L233D
329 22E4  A9 77            LDA #$77
330 22E6  85 9C            STA MVTA+1
331 22E8  20 9D 24         JSR L249D
332 22EB  4C 1E 21         JMP L211E
333 22EE  A9 01    L22EE   LDA #$01
334 22F0  8D D1 26         STA L26D5+2
335 22F3  20 CE 24         JSR L24CE
336 22F6  4C 00 20         JMP L2000
337 22F9  A9 10    L22F9   LDA #$10
338 22FB  A2 00            LDX #$00
339 22FD  9D DF 0F L22FD   STA $0fdf,X
340 2300  E8               INX
341 2301  E0 06            CPX #$06
342 2303  F0 03            BEQ L2308
343 2305  4C FD 22         JMP L22FD
344 2308  60       L2308   RTS
345 2309  AD E0 0F L2309   LDA $0fe0
346 230C  85 97            STA SVESA
347 230E  A2 04    L230E   LDX #$04
348 2310  BD DF 0F L2310   LDA $0fdf,X
349 2313  C9 19            CMP #$19
350 2315  D0 09            BNE L2320
351 2317  A9 10            LDA #$10
352 2319  9D DF 0F         STA $0fdf,X
353 231C  CA               DEX
354 231D  4C 10 23         JMP L2310
355 2320  FE DF 0F L2320   INC $0fdf,X
356 2323  88               DEY
357 2324  D0 E8            BNE L230e
358 2326  A5 97            LDA SVESA
359 2328  CD E0 0F         CMP $0fe0
360 232B  F0 0F            BEQ L233c
361 232D  A5 A2            LDA MVLNG
362 232F  C9 05            CMP #$05
363 2331  F0 09            BEQ L233c
364 2333  E6 A2            INC MVLNG
365 2335  20 3D 23         JSR L233D
366 2338  A9 C0            LDA #$c0
367 233A  85 9D            STA CPC
368 233C  60       L233C   RTS
369 233D  A2 05    L233D   LDX #$05
370 233F  A9 00            LDA #$00
371 2341  9D F5 0F L2341   STA $0ff5,X
372 2344  CA               DEX
373 2345  10 FA            BPL L2341
374 2347  A6 A2            LDX MVLNG
375 2349  A9 41            LDA #$41
376 234B  9D F5 0F L234B   STA $0ff5,X
377 234E  CA               DEX
378 234F  D0 FA            BNE L234b
379 2351  60               RTS
380 2352  A9 A8    L2352   LDA #$a8
381 2354  85 9D            STA CPC
382 2356  20 B7 24         JSR L24B7
383 2359  A9 08            LDA #$08
384 235B  A0 01            LDY #$01
385 235D  A2 12            LDX #$12
386 235F  20 BC 2C         JSR L2CC2
387 2362  A9 0A            LDA #$0a
388 2364  A0 01            LDY #$01
389 2366  A2 14            LDX #$14
390 2368  20 BC 2C         JSR L2CC2
391 236B  A9 14            LDA #$14
392 236D  20 9D 24         JSR L249D
393 2370  A9 9F            LDA #$9f
394 2372  85 97            STA SVESA
395 2374  A9 CF            LDA #$cf
396 2376  85 8B            STA STMCUR+1
397 2378  A2 27            LDX #$27
398 237A  A0 00            LDY #$00
399 237C  20 88 24 L237C   JSR L2488
400 237F  B9 D9 26         LDA L26DD+2,Y
401 2382  9D B0 1E         STA $1eb0,X
402 2385  C6 8B            DEC STMCUR+1
403 2387  A5 8B            LDA STMCUR+1
404 2389  8D 02 D0         STA M2PF
405 238C  A5 9C            LDA MVTA+1
406 238E  38               SEC
407 238F  E9 2A            SBC #$2a
408 2391  C6 97            DEC SVESA
409 2393  C5 97            CMP SVESA
410 2395  B0 0B            BCS L23a2
411 2397  C8               INY
412 2398  C0 04            CPY #$04
413 239A  90 E0            BCC L237c
414 239C  A0 00            LDY #$00
415 239E  CA               DEX
416 239F  4C 7C 23         JMP L237C
417 23A2  E6 8B    L23A2   INC STMCUR+1
418 23A4  BD B0 1E L23A4   LDA $1eb0,X
419 23A7  F0 17            BEQ L23c0
420 23A9  4A               LSR A
421 23AA  4A               LSR A
422 23AB  9D B0 1E         STA $1eb0,X
423 23AE  20 88 24         JSR L2488
424 23B1  E6 8B            INC STMCUR+1
425 23B3  A5 8B            LDA STMCUR+1
426 23B5  8D 02 D0         STA M2PF
427 23B8  38               SEC
428 23B9  E9 06            SBC #$06
429 23BB  85 9C            STA MVTA+1
430 23BD  4C A4 23         JMP L23A4
431 23C0  E8       L23C0   INX
432 23C1  E0 29            CPX #$29
433 23C3  90 DF            BCC L23a4
434 23C5  A5 9C            LDA MVTA+1
435 23C7  85 96            STA POKADR+1
436 23C9  A5 96    L23C9   LDA POKADR+1
437 23CB  85 9C            STA MVTA+1
438 23CD  C9 F5            CMP #$f5
439 23CF  B0 0E            BCS L23df
440 23D1  18               CLC
441 23D2  69 06            ADC #$06
442 23D4  8D 02 D0         STA M2PF
443 23D7  E6 96            INC POKADR+1
444 23D9  20 88 24         JSR L2488
445 23DC  4C C9 23         JMP L23C9
446 23DF  60       L23DF   RTS
447 23E0  A9 00    L23E0   LDA #$00
448 23E2  85 80            STA LOMEM
449 23E4  A9 04            LDA #$04
450 23E6  85 81            STA LOMEM+1
451 23E8  A2 05            LDX #$05
452 23EA  4C 9F 2D         JMP L2DA5
453 23ED  BD AD 2D L23ED   LDA L2DB3,X
454 23F0  9D D2 04         STA $04d2,X
455 23F3  BD BC 2D         LDA L2DBF+3,X
456 23F6  9D CD 05         STA $05cd,X
457 23F9  BD CB 2D         LDA L2DCF+2,X
458 23FC  9D D7 06         STA $06d7,X
459 23FF  E8               INX
460 2400  E0 0F            CPX #$0f
461 2402  D0 E9            BNE L23ed
462 2404  A2 07    L2404   LDX #$07
463 2406  BD 1D 24 L2406   LDA L241D,X
464 2409  9D C0 02         STA PCOLR0,X
465 240C  CA               DEX
466 240D  10 F7            BPL L2406
467 240F  60               RTS
468 2410  A9 00    L2410   LDA #$00
469 2412  85 80            STA LOMEM
470 2414  A9 10            LDA #$10
471 2416  85 81            STA LOMEM+1
472 2418  A2 0F            LDX #$0f
473 241A  4C 9F 2D         JMP L2DA5
474 241D  3A 48  L241D   .byte $3a, $48, $0f, $00
474 241F  0F 00 
475 2421  28 0E          .byte $28, $0e, $00
475 2423  00 
476 2424  A9 35    L2424   LDA #$35
477 2426  8D 30 02         STA SDLSTL
478 2429  A9 29            LDA #$29
479 242B  8D 31 02         STA SDLSTH
480 242E  A9 9F            LDA #$9f
481 2430  8D 00 02         STA VDSLST
482 2433  A9 29            LDA #$29
483 2435  8D 01 02         STA VDSLST+1
484 2438  A9 01            LDA #$01
485 243A  20 9D 24         JSR L249D
486 243D  A9 C0            LDA #$c0
487 243F  8D 0E D4         STA NMIEN
488 2442  60               RTS
489 2443  A2 00    L2443   LDX #$00
490 2445  BD 00 E0 L2445   LDA $e000,X
491 2448  9D 00 30         STA $3000,X
492 244B  BD 00 E1         LDA $e100,X
493 244E  9D 00 31         STA $3100,X
494 2451  BD 00 E2         LDA $e200,X
495 2454  9D 00 32         STA $3200,X
496 2457  E8               INX
497 2458  D0 EB            BNE L2445
498 245A  BD 1D 2A L245A   LDA L2A21+2,X
499 245D  9D 00 32         STA $3200,X
500 2460  E8               INX
501 2461  E0 A1            CPX #$a1
502 2463  D0 F5            BNE L245a
503 2465  A0 00    L2465   LDY #$00
504 2467  A2 20            LDX #$20
505 2469  C8       L2469   INY
506 246A  C4 93            CPY $93
507 246C  D0 FB            BNE L2469
508 246E  A0 00            LDY #$00
509 2470  CA               DEX
510 2471  D0 F6            BNE L2469
511 2473  60               RTS
512 2474  00 C8  L2474   .byte $00, $c8, $96, $78
512 2476  96 78 
513 2478  64 50          .byte $64, $50, $46, $41
513 247A  46 41 
514 247C  3C 37          .byte $3c, $37, $32, $2d
514 247E  32 2D 
515 2480  28 23          .byte $28, $23, $1e, $19
515 2482  1E 19 
516 2484  16 12          .byte $16, $12, $0d, $0a
516 2486  0D 0A 
517 2488  98       L2488   TYA
518 2489  48               PHA
519 248A  A9 00            LDA #$00
520 248C  A8               TAY
521 248D  18       L248D   CLC
522 248E  69 01            ADC #$01
523 2490  C9 16            CMP #$16
524 2492  F0 06            BEQ L249a
525 2494  C8       L2494   INY
526 2495  D0 FD            BNE L2494
527 2497  4C 8D 24         JMP L248D
528 249A  68       L249A   PLA
529 249B  A8               TAY
530 249C  60               RTS
531 249D  85 94    L249D   STA COX
532 249F  A9 00            LDA #$00
533 24A1  85 14            STA RTCLOK+2
534 24A3  A5 14    L24A3   LDA RTCLOK+2
535 24A5  C5 94            CMP COX
536 24A7  D0 FA            BNE L24a3
537 24A9  60               RTS
538 24AA  85 98    L24AA   STA SVESA+1
539 24AC  AD 0A D2         LDA RANDOM
540 24AF  25 98            AND SVESA+1
541 24B1  84 98            STY SVESA+1
542 24B3  18               CLC
543 24B4  65 98            ADC SVESA+1
544 24B6  60               RTS
545 24B7  A9 0F    L24B7   LDA #$0f
546 24B9  85 A1            STA TSLNUM+1
547 24BB  20 77 2C         JSR L2C7D
548 24BE  A9 00            LDA #$00
549 24C0  AA               TAX
550 24C1  9D 00 06 L24C1   STA $0600,X
551 24C4  E8               INX
552 24C5  E0 0C            CPX #$0c
553 24C7  90 F8            BCC L24c1
554 24C9  A9 02            LDA #$02
555 24CB  85 A1            STA TSLNUM+1
556 24CD  60               RTS
557 24CE  A9 40    L24CE   LDA #$40
558 24D0  8D 0E D4         STA NMIEN
559 24D3  20 E0 23         JSR L23E0
560 24D6  A9 00            LDA #$00
561 24D8  85 80            STA LOMEM
562 24DA  A9 10            LDA #$10
563 24DC  85 81            STA LOMEM+1
564 24DE  A2 05            LDX #$05
565 24E0  20 9F 2D         JSR L2DA5
566 24E3  A2 30            LDX #$30
567 24E5  A9 7E            LDA #$7e
568 24E7  9D 9E 06 L24E7   STA $069e,X
569 24EA  CA               DEX
570 24EB  10 FA            BPL L24e7
571 24ED  A2 00            LDX #$00
572 24EF  BD B6 2A L24EF   LDA L2AB9+3,X
573 24F2  9D 00 30         STA $3000,X
574 24F5  E8               INX
575 24F6  E0 30            CPX #$30
576 24F8  D0 F5            BNE L24ef
577 24FA  A2 00            LDX #$00
578 24FC  BD E6 2A L24FC   LDA L2AE9+3,X
579 24FF  9D 00 31         STA $3100,X
580 2502  E8               INX
581 2503  E0 98            CPX #$98
582 2505  D0 F5            BNE L24fc
583 2507  A9 01            LDA #$01
584 2509  8D 6F 02         STA GPRIOR
585 250C  A9 03            LDA #$03
586 250E  8D 0A D0         STA M2PL
587 2511  A9 E4            LDA #$e4
588 2513  8D C2 02         STA PCOLR2
589 2516  A9 88            LDA #$88
590 2518  8D C5 02         STA COLOR1
591 251B  AD D1 26         LDA L26D5+2
592 251E  D0 11            BNE L2531
593 2520  A9 0D            LDA #$0d
594 2522  A0 01            LDY #$01
595 2524  20 AA 24         JSR L24AA
596 2527  0A               ASL A
597 2528  0A               ASL A
598 2529  0A               ASL A
599 252A  0A               ASL A
600 252B  18               CLC
601 252C  69 0E            ADC #$0e
602 252E  8D C6 02         STA COLOR2
603 2531  A9 14    L2531   LDA #$14
604 2533  8D 30 02         STA SDLSTL
605 2536  A9 29            LDA #$29
606 2538  8D 31 02         STA SDLSTH
607 253B  A9 13            LDA #$13
608 253D  8D 00 02         STA VDSLST
609 2540  A9 2A            LDA #$2a
610 2542  8D 01 02         STA VDSLST+1
611 2545  A9 C0            LDA #$c0
612 2547  8D 0E D4         STA NMIEN
613 254A  A9 00            LDA #$00
614 254C  85 94            STA COX
615 254E  A9 10            LDA #$10
616 2550  85 95            STA POKADR
617 2552  E6 95            INC POKADR
618 2554  18               CLC
619 2555  A5 94            LDA COX
620 2557  69 5D            ADC #$5d
621 2559  85 94            STA COX
622 255B  90 02            BCC L255f
623 255D  E6 95            INC POKADR
624 255F  AD D1 26 L255F   LDA L26D5+2
625 2562  D0 13            BNE L2577
626 2564  AD 0A D2 L2564   LDA RANDOM
627 2567  C9 06            CMP #$06
628 2569  B0 F9            BCS L2564
629 256B  AA               TAX
630 256C  BD D2 26         LDA L26D5+3,X
631 256F  8D D0 26         STA L26D5+1
632 2572  A9 25            LDA #$25
633 2574  4C 81 25         JMP L2581
634 2577  A9 00    L2577   LDA #$00
635 2579  8D D0 26         STA L26D5+1
636 257C  8D C6 02         STA COLOR2
637 257F  A9 29            LDA #$29
638 2581  8D D8 26 L2581   STA L26DD+1
639 2584  A2 00            LDX #$00
640 2586  A0 00    L2586   LDY #$00
641 2588  BD 71 26         LDA L2675+2,X
642 258B  91 94            STA (COX),Y
643 258D  E8               INX
644 258E  C8               INY
645 258F  BD 71 26         LDA L2675+2,X
646 2592  91 94            STA (COX),Y
647 2594  18               CLC
648 2595  A5 94            LDA COX
649 2597  69 14            ADC #$14
650 2599  85 94            STA COX
651 259B  90 02            BCC L259f
652 259D  E6 95            INC POKADR
653 259F  E8       L259F   INX
654 25A0  E0 0A            CPX #$0a
655 25A2  D0 E2            BNE L2586
656 25A4  A2 00            LDX #$00
657 25A6  A9 01    L25A6   LDA #$01
658 25A8  9D 5C 11         STA $115c,X
659 25AB  A9 02            LDA #$02
660 25AD  9D 5F 11         STA $115f,X
661 25B0  18               CLC
662 25B1  8A               TXA
663 25B2  69 14            ADC #$14
664 25B4  AA               TAX
665 25B5  E0 64            CPX #$64
666 25B7  D0 ED            BNE L25a6
667 25B9  A9 03            LDA #$03
668 25BB  8D 49 11         STA $1149
669 25BE  8D 4A 11         STA $114a
670 25C1  A9 04            LDA #$04
671 25C3  8D 48 11         STA $1148
672 25C6  A9 05            LDA #$05
673 25C8  8D 4B 11         STA $114b
674 25CB  A9 70            LDA #$70
675 25CD  8D 02 D0         STA M2PF
676 25D0  20 9D 24         JSR L249D
677 25D3  A9 64            LDA #$64
678 25D5  8D 01 D2         STA POT1
679 25D8  8D 03 D2         STA POT3
680 25DB  A9 18            LDA #$18
681 25DD  8D 00 D2         STA POT0
682 25E0  A9 19            LDA #$19
683 25E2  8D 02 D2         STA POT2
684 25E5  A9 71            LDA #$71
685 25E7  85 96            STA POKADR+1
686 25E9  20 88 24 L25E9   JSR L2488
687 25EC  A5 96            LDA POKADR+1
688 25EE  8D 02 D0         STA M2PF
689 25F1  C9 87            CMP #$87
690 25F3  F0 0B            BEQ L2600
691 25F5  20 88 24         JSR L2488
692 25F8  E6 96            INC POKADR+1
693 25FA  20 88 24         JSR L2488
694 25FD  4C E9 25         JMP L25E9
695 2600  A9 00    L2600   LDA #$00
696 2602  8D 01 D2         STA POT1
697 2605  8D 03 D2         STA POT3
698 2608  A9 1E            LDA #$1e
699 260A  20 9D 24         JSR L249D
700 260D  AD D1 26         LDA L26D5+2
701 2610  D0 04            BNE L2616
702 2612  A9 8A            LDA #$8a
703 2614  D0 02            BNE L2618
704 2616  A9 99    L2616   LDA #$99
705 2618  85 9D    L2618   STA CPC
706 261A  AC D8 26         LDY L26DD+1
707 261D  8C 5D 11         STY $115d
708 2620  C8               INY
709 2621  8C 5E 11         STY $115e
710 2624  C8               INY
711 2625  8C 71 11         STY $1171
712 2628  C8               INY
713 2629  8C 72 11         STY $1172
714 262C  AE D0 26         LDX L26D5+1
715 262F  A0 00            LDY #$00
716 2631  BD 7D 26 L2631   LDA L2681+2,X
717 2634  99 D0 11         STA $11d0,Y
718 2637  C9 81            CMP #$81
719 2639  F0 05            BEQ L2640
720 263B  E8               INX
721 263C  C8               INY
722 263D  4C 31 26         JMP L2631
723 2640  A9 FF    L2640   LDA #$ff
724 2642  20 9D 24         JSR L249D
725 2645  A9 00            LDA #$00
726 2647  8D 2F 02         STA SDMCTL
727 264A  A9 01            LDA #$01
728 264C  20 9D 24         JSR L249D
729 264F  A9 00            LDA #$00
730 2651  8D 02 D0         STA M2PF
731 2654  8D 0A D0         STA M2PL
732 2657  8D D1 26         STA L26D5+2
733 265A  A9 40            LDA #$40
734 265C  8D 0E D4         STA NMIEN
735 265F  20 E0 23         JSR L23E0
736 2662  20 ED 23         JSR L23ED
737 2665  20 43 24         JSR L2443
738 2668  20 04 24         JSR L2404
739 266B  20 89 36 	JSR HISCORE
740 266E  60               RTS
741 266F  00 00  L2675   .byte $00, $00, $21, $22
741 2671  21 22 
742 2673  23 24          .byte $23, $24, $6d, $6e
742 2675  6D 6E 
743 2677  6F 70          .byte $6f, $70, $71, $72
743 2679  71 72 
744 267B  01 01  L2681   .byte $01, $01, $b9, $af
744 267D  B9 AF 
745 267F  B5 87          .byte $b5, $87, $b2, $a5
745 2681  B2 A5 
746 2683  80 A6          .byte $80, $a6, $a9, $b2
746 2685  A9 B2 
747 2687  A5 A4          .byte $a5, $a4, $81, $80
747 2689  81 80 
748 268B  A7 B2          .byte $a7, $b2, $a5, $a1
748 268D  A5 A1 
749 268F  B4 80          .byte $b4, $80, $aa, $af
749 2691  AA AF 
750 2693  A2 81          .byte $a2, $81, $80, $80
750 2695  80 80 
751 2697  B7 A1          .byte $b7, $a1, $b9, $80
751 2699  B9 80 
752 269B  B4 AF          .byte $b4, $af, $80, $a7
752 269D  80 A7 
753 269F  AF 81          .byte $af, $81, $80, $80
753 26A1  80 80 
754 26A3  80 B7          .byte $80, $b7, $af, $b7
754 26A5  AF B7 
755 26A7  A5 A5          .byte $a5, $a5, $81, $80
755 26A9  81 80 
756 26AB  80 A6          .byte $80, $a6, $a1, $ae
756 26AD  A1 AE 
757 26AF  B4 A1          .byte $b4, $a1, $b3, $b4
757 26B1  B3 B4 
758 26B3  A9 A3          .byte $a9, $a3, $81, $ac
758 26B5  81 AC 
759 26B7  A9 AB          .byte $a9, $ab, $a5, $8c
759 26B9  A5 8C 
760 26BB  80 A1          .byte $80, $a1, $b7, $a5
760 26BD  B7 A5 
761 26BF  B3 AF          .byte $b3, $af, $ad, $a5
761 26C1  AD A5 
762 26C3  81 80          .byte $81, $80, $80, $a7
762 26C5  80 A7 
763 26C7  AF AF          .byte $af, $af, $a4, $80
763 26C9  A4 80 
764 26CB  B7 AF          .byte $b7, $af, $b2, $ab
764 26CD  B2 AB 
765 26CF  81 00  L26D5   .byte $81, $00, $00, $0d
765 26D1  00 0D 
766 26D3  19 24          .byte $19, $24, $2e, $39
766 26D5  2E 39 
767 26D7  47 00  L26DD   .byte $47, $00, $01, $05
767 26D9  01 05 
768 26DB  15 55          .byte $15, $55, $79, $04
768 26DD  79 04 
769 26DF  60 04          .byte $60, $04, $a2, $04
769 26E1  A2 04 
770 26E3  90 02          .byte $90, $02, $80, $02
770 26E5  80 02 
771 26E7  79 04          .byte $79, $04, $60, $04
771 26E9  60 04 
772 26EB  A2 04          .byte $a2, $04, $90, $02
772 26ED  90 02 
773 26EF  80 02          .byte $80, $02, $79, $04
773 26F1  79 04 
774 26F3  60 04          .byte $60, $04, $79, $04
774 26F5  79 04 
775 26F7  60 04          .byte $60, $04, $6c, $04
775 26F9  6C 04 
776 26FB  80 04          .byte $80, $04, $a2, $04
776 26FD  A2 04 
777 26FF  90 02          .byte $90, $02, $80, $02
777 2701  80 02 
778 2703  79 04          .byte $79, $04, $60, $04
778 2705  60 04 
779 2707  A2 04          .byte $a2, $04, $90, $02
779 2709  90 02 
780 270B  80 02          .byte $80, $02, $79, $04
780 270D  79 04 
781 270F  60 04          .byte $60, $04, $a2, $04
781 2711  A2 04 
782 2713  90 02          .byte $90, $02, $80, $02
782 2715  80 02 
783 2717  79 04          .byte $79, $04, $60, $04
783 2719  60 04 
784 271B  6C 04          .byte $6c, $04, $60, $04
784 271D  60 04 
785 271F  79 08          .byte $79, $08, $a2, $04
785 2721  A2 04 
786 2723  80 04          .byte $80, $04, $d9, $04
786 2725  D9 04 
787 2727  C1 02          .byte $c1, $02, $ad, $02
787 2729  AD 02 
788 272B  A2 04          .byte $a2, $04, $80, $04
788 272D  80 04 
789 272F  D9 04          .byte $d9, $04, $c1, $02
789 2731  C1 02 
790 2733  AD 02          .byte $ad, $02, $a2, $04
790 2735  A2 04 
791 2737  80 04          .byte $80, $04, $a2, $04
791 2739  A2 04 
792 273B  80 04          .byte $80, $04, $90, $04
792 273D  90 04 
793 273F  AD 04          .byte $ad, $04, $d9, $04
793 2741  D9 04 
794 2743  C1 02          .byte $c1, $02, $ad, $02
794 2745  AD 02 
795 2747  A2 04          .byte $a2, $04, $80, $04
795 2749  80 04 
796 274B  D9 04          .byte $d9, $04, $c1, $02
796 274D  C1 02 
797 274F  AD 02          .byte $ad, $02, $a2, $04
797 2751  A2 04 
798 2753  80 04          .byte $80, $04, $d9, $04
798 2755  D9 04 
799 2757  C1 02          .byte $c1, $02, $ad, $02
799 2759  AD 02 
800 275B  A2 04          .byte $a2, $04, $80, $04
800 275D  80 04 
801 275F  90 04          .byte $90, $04, $80, $04
801 2761  80 04 
802 2763  A2 08          .byte $a2, $08, $00, $00
802 2765  00 00 
803 2767  3C 02          .byte $3c, $02, $35, $02
803 2769  35 02 
804 276B  2F 04          .byte $2f, $04, $3c, $04
804 276D  3C 04 
805 276F  35 04          .byte $35, $04, $40, $04
805 2771  40 04 
806 2773  3C 08          .byte $3c, $08, $00, $51
806 2775  00 51 
807 2777  02 51          .byte $02, $51, $06, $51
807 2779  06 51 
808 277B  08 6C          .byte $08, $6c, $04, $60
808 277D  04 60 
809 277F  06 79          .byte $06, $79, $10, $f3
809 2781  10 F3 
810 2783  10 00          .byte $10, $00, $f3, $08
810 2785  F3 08 
811 2787  D9 04          .byte $d9, $04, $cc, $0c
811 2789  CC 0C 
812 278B  D9 0C          .byte $d9, $0c, $f3, $02
812 278D  F3 02 
813 278F  FF 02          .byte $ff, $02, $f3, $02
813 2791  F3 02 
814 2793  FF 02          .byte $ff, $02, $f3, $08
814 2795  F3 08 
815 2797  D9 04          .byte $d9, $04, $f3, $08
815 2799  F3 08 
816 279B  00 00          .byte $00, $00, $21, $02
816 279D  21 02 
817 279F  25 02          .byte $25, $02, $21, $02
817 27A1  21 02 
818 27A3  25 02          .byte $25, $02, $00, $00
818 27A5  00 00 
819 27A7  00 00  L27AD   .byte $00, $00, $41, $41
819 27A9  41 41 
820 27AB  41 41          .byte $41, $41, $00, $41
820 27AD  00 41 
821 27AF  41 41          .byte $41, $41, $41, $00
821 27B1  41 00 
822 27B3  41 41          .byte $41, $41, $41, $41
822 27B5  41 41 
823 27B7  00 41          .byte $00, $41, $41, $41
823 27B9  41 41 
824 27BB  41 00          .byte $41, $00, $41, $41
824 27BD  41 41 
825 27BF  41 41          .byte $41, $41, $00, $41
825 27C1  00 41 
826 27C3  41 41          .byte $41, $41, $41, $00
826 27C5  41 00 
827 27C7  41 00          .byte $41, $00, $00, $41
827 27C9  00 41 
828 27CB  00 41          .byte $00, $41, $00, $00
828 27CD  00 00 
829 27CF  00 00          .byte $00, $00, $41, $00
829 27D1  41 00 
830 27D3  00 41          .byte $00, $41, $00, $41
830 27D5  00 41 
831 27D7  00 00          .byte $00, $00, $41, $00
831 27D9  41 00 
832 27DB  41 00          .byte $41, $00, $00, $41
832 27DD  00 41 
833 27DF  00 41          .byte $00, $41, $00, $00
833 27E1  00 00 
834 27E3  00 00          .byte $00, $00, $41, $00
834 27E5  41 00 
835 27E7  00 41          .byte $00, $41, $00, $41
835 27E9  00 41 
836 27EB  00 00          .byte $00, $00, $41, $00
836 27ED  41 00 
837 27EF  41 00          .byte $41, $00, $00, $41
837 27F1  00 41 
838 27F3  00 41          .byte $00, $41, $00, $00
838 27F5  00 00 
839 27F7  00 00          .byte $00, $00, $41, $00
839 27F9  41 00 
840 27FB  00 41          .byte $00, $41, $00, $41
840 27FD  00 41 
841 27FF  00 00          .byte $00, $00, $41, $00
841 2801  41 00 
842 2803  41 00          .byte $41, $00, $00, $41
842 2805  00 41 
843 2807  00 41          .byte $00, $41, $00, $00
843 2809  00 00 
844 280B  00 00          .byte $00, $00, $41, $00
844 280D  41 00 
845 280F  00 41          .byte $00, $41, $00, $41
845 2811  00 41 
846 2813  00 00          .byte $00, $00, $41, $00
846 2815  41 00 
847 2817  41 00          .byte $41, $00, $00, $41
847 2819  00 41 
848 281B  00 41          .byte $00, $41, $00, $00
848 281D  00 00 
849 281F  00 00          .byte $00, $00, $41, $41
849 2821  41 41 
850 2823  41 41          .byte $41, $41, $00, $41
850 2825  00 41 
851 2827  00 00          .byte $00, $00, $41, $00
851 2829  41 00 
852 282B  41 41          .byte $41, $41, $41, $41
852 282D  41 41 
853 282F  00 41          .byte $00, $41, $00, $00
853 2831  00 00 
854 2833  00 00          .byte $00, $00, $41, $00
854 2835  41 00 
855 2837  00 41          .byte $00, $41, $00, $41
855 2839  00 41 
856 283B  41 41          .byte $41, $41, $00, $00
856 283D  00 00 
857 283F  41 41          .byte $41, $41, $00, $41
857 2841  00 41 
858 2843  00 41          .byte $00, $41, $00, $00
858 2845  00 00 
859 2847  00 00          .byte $00, $00, $41, $00
859 2849  41 00 
860 284B  00 00          .byte $00, $00, $00, $41
860 284D  00 41 
861 284F  00 00          .byte $00, $00, $41, $00
861 2851  41 00 
862 2853  41 00          .byte $41, $00, $00, $00
862 2855  00 00 
863 2857  00 41          .byte $00, $41, $00, $00
863 2859  00 00 
864 285B  00 00          .byte $00, $00, $41, $00
864 285D  41 00 
865 285F  00 41          .byte $00, $41, $00, $41
865 2861  00 41 
866 2863  00 00          .byte $00, $00, $41, $00
866 2865  41 00 
867 2867  41 00          .byte $41, $00, $41, $41
867 2869  41 41 
868 286B  00 41          .byte $00, $41, $00, $00
868 286D  00 00 
869 286F  00 00          .byte $00, $00, $41, $00
869 2871  41 00 
870 2873  00 00          .byte $00, $00, $00, $41
870 2875  00 41 
871 2877  00 00          .byte $00, $00, $41, $00
871 2879  41 00 
872 287B  41 00          .byte $41, $00, $00, $00
872 287D  00 00 
873 287F  00 41          .byte $00, $41, $00, $00
873 2881  00 00 
874 2883  00 00          .byte $00, $00, $41, $00
874 2885  41 00 
875 2887  00 41          .byte $00, $41, $00, $41
875 2889  00 41 
876 288B  00 00          .byte $00, $00, $41, $00
876 288D  41 00 
877 288F  41 00          .byte $41, $00, $00, $41
877 2891  00 41 
878 2893  00 00          .byte $00, $00, $00, $00
878 2895  00 00 
879 2897  00 00          .byte $00, $00, $41, $00
879 2899  41 00 
880 289B  00 00          .byte $00, $00, $00, $41
880 289D  00 41 
881 289F  41 41          .byte $41, $41, $41, $00
881 28A1  41 00 
882 28A3  41 00          .byte $41, $00, $00, $00
882 28A5  00 00 
883 28A7  00 41  L28AD   .byte $00, $41, $41, $41
883 28A9  41 41 
884 28AB  41 00          .byte $41, $00, $41, $41
884 28AD  41 41 
885 28AF  41 41          .byte $41, $41, $00, $41
885 28B1  00 41 
886 28B3  00 00          .byte $00, $00, $41, $00
886 28B5  41 00 
887 28B7  41 00          .byte $41, $00, $00, $41
887 28B9  00 41 
888 28BB  00 41          .byte $00, $41, $00, $00
888 28BD  00 00 
889 28BF  22 79  L28C5   .byte $22, $79, $00, $2d
889 28C1  00 2D 
890 28C3  61 72          .byte $61, $72, $6b, $00
890 28C5  6B 00 
891 28C7  61 6E          .byte $61, $6e, $64, $00
891 28C9  64 00 
892 28CB  23 61          .byte $23, $61, $74, $68
892 28CD  74 68 
893 28CF  79 00          .byte $79, $00, $33, $6c
893 28D1  33 6C 
894 28D3  6F 61          .byte $6f, $61, $74, $6d
894 28D5  74 6D 
895 28D7  61 6E  L28DD   .byte $61, $6e, $00, $33
895 28D9  00 33 
896 28DB  23 2F          .byte $23, $2f, $32, $25
896 28DD  32 25 
897 28DF  00 00          .byte $00, $00, $00, $00
897 28E1  00 00 
898 28E3  00 00          .byte $00, $00, $00, $00
898 28E5  00 00 
899 28E7  00 00          .byte $00, $00, $00, $00
899 28E9  00 00 
900 28EB  00 2C          .byte $00, $2c, $25, $36
900 28ED  25 36 
901 28EF  25 2C          .byte $25, $2c, $70, $70
901 28F1  70 70 
902 28F3  42 00          .byte $42, $00, $10, $02
902 28F5  10 02 
903 28F7  02 02          .byte $02, $02, $02, $02
903 28F9  02 02 
904 28FB  02 02          .byte $02, $02, $02, $02
904 28FD  02 02 
905 28FF  02 02          .byte $02, $02, $02, $82
905 2901  02 82 
906 2903  02 02          .byte $02, $02, $02, $02
906 2905  02 02 
907 2907  02 02          .byte $02, $02, $02, $02
907 2909  02 02 
908 290B  41 F7          .byte $41, $f7, $28, $70
908 290D  28 70 
909 290F  70 70          .byte $70, $70, $46, $00
909 2911  46 00 
910 2913  10 06          .byte $10, $06, $06, $06
910 2915  06 06 
911 2917  06 06          .byte $06, $06, $06, $06
911 2919  06 06 
912 291B  06 06          .byte $06, $06, $06, $06
912 291D  06 06 
913 291F  06 06          .byte $06, $06, $06, $06
913 2921  06 06 
914 2923  06 06          .byte $06, $06, $06, $06
914 2925  06 06 
915 2927  06 86          .byte $06, $86, $06, $06
915 2929  06 06 
916 292B  70 41          .byte $70, $41, $14, $29
916 292D  14 29 
917 292F  70 70          .byte $70, $70, $c2, $d6
917 2931  C2 D6 
918 2933  0F 4D          .byte $0f, $4d, $00, $10
918 2935  00 10 
919 2937  0D 0D          .byte $0d, $0d, $0d, $0d
919 2939  0D 0D 
920 293B  0D 0D          .byte $0d, $0d, $0d, $0d
920 293D  0D 0D 
921 293F  0D 0D          .byte $0d, $0d, $0d, $0d
921 2941  0D 0D 
922 2943  0D 0D          .byte $0d, $0d, $0d, $0d
922 2945  0D 0D 
923 2947  0D 0D          .byte $0d, $0d, $0d, $0d
923 2949  0D 0D 
924 294B  0D 0D          .byte $0d, $0d, $0d, $0d
924 294D  0D 0D 
925 294F  0D 0D          .byte $0d, $0d, $0d, $0d
925 2951  0D 0D 
926 2953  0D 0D          .byte $0d, $0d, $0d, $0d
926 2955  0D 0D 
927 2957  0D 0D          .byte $0d, $0d, $0d, $0d
927 2959  0D 0D 
928 295B  0D 0D          .byte $0d, $0d, $0d, $0d
928 295D  0D 0D 
929 295F  0D 0D          .byte $0d, $0d, $0d, $0d
929 2961  0D 0D 
930 2963  0D 0D          .byte $0d, $0d, $0d, $0d
930 2965  0D 0D 
931 2967  0D 0D          .byte $0d, $0d, $0d, $0d
931 2969  0D 0D 
932 296B  0D 0D          .byte $0d, $0d, $0d, $0d
932 296D  0D 0D 
933 296F  0D 0D          .byte $0d, $0d, $0d, $0d
933 2971  0D 0D 
934 2973  0D 0D          .byte $0d, $0d, $0d, $0d
934 2975  0D 0D 
935 2977  0D 0D          .byte $0d, $0d, $0d, $0d
935 2979  0D 0D 
936 297B  0D 0D          .byte $0d, $0d, $0d, $0d
936 297D  0D 0D 
937 297F  0D 0D          .byte $0d, $0d, $0d, $0d
937 2981  0D 0D 
938 2983  0D 0D          .byte $0d, $0d, $0d, $0d
938 2985  0D 0D 
939 2987  0D 0D          .byte $0d, $0d, $0d, $0d
939 2989  0D 0D 
940 298B  0D 0D          .byte $0d, $0d, $8d, $0d
940 298D  8D 0D 
941 298F  0D 0D          .byte $0d, $0d, $0d, $8d
941 2991  0D 8D 
942 2993  0D 0D          .byte $0d, $0d, $8d, $41
942 2995  8D 41 
943 2997  35 29          .byte $35, $29, $48, $a9
943 2999  48 A9 
944 299B  DA 8D          .byte $da, $8d, $0a, $d4
944 299D  0A D4 
945 299F  8D 18          .byte $8d, $18, $d0, $a9
945 29A1  D0 A9 
946 29A3  B4 8D          .byte $b4, $8d, $00, $02
946 29A5  00 02 
947 29A7  A9 29          .byte $a9, $29, $8d, $01
947 29A9  8D 01 
948 29AB  02 68          .byte $02, $68, $40, $48
948 29AD  40 48 
949 29AF  A9 E4          .byte $a9, $e4, $8d, $0a
949 29B1  8D 0A 
950 29B3  D4 8D          .byte $d4, $8d, $13, $d0
950 29B5  13 D0 
951 29B7  AD C2          .byte $ad, $c2, $02, $8d
951 29B9  02 8D 
952 29BB  16 D0          .byte $16, $d0, $a9, $cf
952 29BD  A9 CF 
953 29BF  8D 00          .byte $8d, $00, $02, $a9
953 29C1  02 A9 
954 29C3  29 8D          .byte $29, $8d, $01, $02
954 29C5  01 02 
955 29C7  68 40          .byte $68, $40, $48, $a9
955 29C9  48 A9 
956 29CB  0A 8D          .byte $0a, $8d, $0a, $d4
956 29CD  0A D4 
957 29CF  8D 12          .byte $8d, $12, $d0, $a9
957 29D1  D0 A9 
958 29D3  04 8D          .byte $04, $8d, $1b, $d0
958 29D5  1B D0 
959 29D7  A9 E9          .byte $a9, $e9, $8d, $00
959 29D9  8D 00 
960 29DB  02 A9          .byte $02, $a9, $29, $8d
960 29DD  29 8D 
961 29DF  01 02          .byte $01, $02, $68, $40
961 29E1  68 40 
962 29E3  48 A9          .byte $48, $a9, $c8, $8d
962 29E5  C8 8D 
963 29E7  0A D4          .byte $0a, $d4, $8d, $1a
963 29E9  8D 1A 
964 29EB  D0 A9          .byte $d0, $a9, $9f, $8d
964 29ED  9F 8D 
965 29EF  00 02          .byte $00, $02, $a9, $29
965 29F1  A9 29 
966 29F3  8D 01          .byte $8d, $01, $02, $68
966 29F5  02 68 
967 29F7  40 48          .byte $40, $48, $a9, $e0
967 29F9  A9 E0 
968 29FB  8D 0A          .byte $8d, $0a, $d4, $8d
968 29FD  D4 8D 
969 29FF  09 D4          .byte $09, $d4, $a9, $0a
969 2A01  A9 0A 
970 2A03  8D 17          .byte $8d, $17, $d0, $a9
970 2A05  D0 A9 
971 2A07  00 8D          .byte $00, $8d, $18, $d0
971 2A09  18 D0 
972 2A0B  68 40          .byte $68, $40, $48, $a9
972 2A0D  48 A9 
973 2A0F  E0 8D          .byte $e0, $8d, $0a, $d4
973 2A11  0A D4 
974 2A13  8D 09          .byte $8d, $09, $d4, $a9
974 2A15  D4 A9 
975 2A17  08 8D          .byte $08, $8d, $1a, $d0
975 2A19  1A D0 
976 2A1B  68 40  L2A21   .byte $68, $40, $00, $00
976 2A1D  00 00 
977 2A1F  00 00          .byte $00, $00, $00, $00
977 2A21  00 00 
978 2A23  00 00          .byte $00, $00, $60, $f6
978 2A25  60 F6 
979 2A27  FF 7F          .byte $ff, $7f, $3e, $78
979 2A29  3E 78 
980 2A2B  78 00          .byte $78, $00, $00, $00
980 2A2D  00 00 
981 2A2F  00 38          .byte $00, $38, $ef, $ef
981 2A31  EF EF 
982 2A33  2A 0A          .byte $2a, $0a, $2e, $2f
982 2A35  2E 2F 
983 2A37  0A 00          .byte $0a, $00, $00, $28
983 2A39  00 28 
984 2A3B  AE FA          .byte $ae, $fa, $e8, $c0
984 2A3D  E8 C0 
985 2A3F  80 00          .byte $80, $00, $00, $00
985 2A41  00 00 
986 2A43  AA AA          .byte $aa, $aa, $aa, $aa
986 2A45  AA AA 
987 2A47  AA 55          .byte $aa, $55, $00, $00
987 2A49  00 00 
988 2A4B  00 AA          .byte $00, $aa, $28, $28
988 2A4D  28 28 
989 2A4F  00 AA          .byte $00, $aa, $55, $00
989 2A51  55 00 
990 2A53  00 00          .byte $00, $00, $aa, $aa
990 2A55  AA AA 
991 2A57  AA AA          .byte $aa, $aa, $aa, $55
991 2A59  AA 55 
992 2A5B  00 00          .byte $00, $00, $00, $00
992 2A5D  00 00 
993 2A5F  00 00          .byte $00, $00, $00, $00
993 2A61  00 00 
994 2A63  00 00          .byte $00, $00, $00, $00
994 2A65  00 00 
995 2A67  00 00          .byte $00, $00, $00, $00
995 2A69  00 00 
996 2A6B  00 00          .byte $00, $00, $55, $00
996 2A6D  55 00 
997 2A6F  00 00          .byte $00, $00, $00, $00
997 2A71  00 00 
998 2A73  00 00          .byte $00, $00, $28, $55
998 2A75  28 55 
999 2A77  00 00          .byte $00, $00, $00, $00
999 2A79  00 00 
1000 2A7B  00 00          .byte $00, $00, $00, $00
1000 2A7D  00 00 
1001 2A7F  55 00          .byte $55, $00, $00, $00
1001 2A81  00 00 
1002 2A83  00 00          .byte $00, $00, $00, $00
1002 2A85  00 00 
1003 2A87  00 00          .byte $00, $00, $00, $00
1003 2A89  00 00 
1004 2A8B  55 00          .byte $55, $00, $00, $00
1004 2A8D  00 00 
1005 2A8F  00 00          .byte $00, $00, $00, $00
1005 2A91  00 00 
1006 2A93  28 55          .byte $28, $55, $00, $00
1006 2A95  00 00 
1007 2A97  00 00          .byte $00, $00, $00, $00
1007 2A99  00 00 
1008 2A9B  00 00          .byte $00, $00, $55, $00
1008 2A9D  55 00 
1009 2A9F  00 00          .byte $00, $00, $00, $00
1009 2AA1  00 00 
1010 2AA3  00 00          .byte $00, $00, $00, $00
1010 2AA5  00 00 
1011 2AA7  00 00          .byte $00, $00, $00, $00
1011 2AA9  00 00 
1012 2AAB  00 00          .byte $00, $00, $00, $00
1012 2AAD  00 00 
1013 2AAF  00 00          .byte $00, $00, $00, $00
1013 2AB1  00 00 
1014 2AB3  00 00  L2AB9   .byte $00, $00, $00, $00
1014 2AB5  00 00 
1015 2AB7  F7 F7          .byte $f7, $f7, $f7, $00
1015 2AB9  F7 00 
1016 2ABB  7F 7F          .byte $7f, $7f, $7f, $38
1016 2ABD  7F 38 
1017 2ABF  F8 F8          .byte $f8, $f8, $f8, $38
1017 2AC1  F8 38 
1018 2AC3  78 78          .byte $78, $78, $78, $1c
1018 2AC5  78 1C 
1019 2AC7  1F 1F          .byte $1f, $1f, $1f, $1c
1019 2AC9  1F 1C 
1020 2ACB  1F 1F          .byte $1f, $1f, $1f, $ff
1020 2ACD  1F FF 
1021 2ACF  FF 00          .byte $ff, $00, $00, $00
1021 2AD1  00 00 
1022 2AD3  00 00          .byte $00, $00, $00, $7f
1022 2AD5  00 7F 
1023 2AD7  FF FC          .byte $ff, $fc, $fc, $78
1023 2AD9  FC 78 
1024 2ADB  78 78          .byte $78, $78, $78, $fe
1024 2ADD  78 FE 
1025 2ADF  FF 3F          .byte $ff, $3f, $3f, $1f
1025 2AE1  3F 1F 
1026 2AE3  1F 1F  L2AE9   .byte $1f, $1f, $1f, $00
1026 2AE5  1F 00 
1027 2AE7  00 00          .byte $00, $00, $00, $00
1027 2AE9  00 00 
1028 2AEB  00 00          .byte $00, $00, $00, $00
1028 2AED  00 00 
1029 2AEF  07 0F          .byte $07, $0f, $19, $3f
1029 2AF1  19 3F 
1030 2AF3  3D 7D          .byte $3d, $7d, $7f, $00
1030 2AF5  7F 00 
1031 2AF7  E0 F0          .byte $e0, $f0, $98, $fc
1031 2AF9  98 FC 
1032 2AFB  BC BE          .byte $bc, $be, $fe, $3f
1032 2AFD  FE 3F 
1033 2AFF  3C 1F          .byte $3c, $1f, $0f, $07
1033 2B01  0F 07 
1034 2B03  03 03          .byte $03, $03, $00, $fc
1034 2B05  00 FC 
1035 2B07  3C F8          .byte $3c, $f8, $f0, $e0
1035 2B09  F0 E0 
1036 2B0B  C0 C0          .byte $c0, $c0, $00, $00
1036 2B0D  00 00 
1037 2B0F  07 0D          .byte $07, $0d, $1b, $37
1037 2B11  1B 37 
1038 2B13  3D 7D          .byte $3d, $7d, $7f, $00
1038 2B15  7F 00 
1039 2B17  E0 B0          .byte $e0, $b0, $d8, $ec
1039 2B19  D8 EC 
1040 2B1B  BC BE          .byte $bc, $be, $fe, $3b
1040 2B1D  FE 3B 
1041 2B1F  3C 1F          .byte $3c, $1f, $0f, $07
1041 2B21  0F 07 
1042 2B23  03 03          .byte $03, $03, $00, $dc
1042 2B25  00 DC 
1043 2B27  3C F8          .byte $3c, $f8, $f0, $e0
1043 2B29  F0 E0 
1044 2B2B  C0 C0          .byte $c0, $c0, $00, $00
1044 2B2D  00 00 
1045 2B2F  07 0F          .byte $07, $0f, $1b, $3d
1045 2B31  1B 3D 
1046 2B33  3E 7D          .byte $3e, $7d, $7d, $00
1046 2B35  7D 00 
1047 2B37  E0 F0          .byte $e0, $f0, $d8, $bc
1047 2B39  D8 BC 
1048 2B3B  7C BE          .byte $7c, $be, $be, $3f
1048 2B3D  BE 3F 
1049 2B3F  3C 1B          .byte $3c, $1b, $0f, $07
1049 2B41  0F 07 
1050 2B43  03 03          .byte $03, $03, $00, $fc
1050 2B45  00 FC 
1051 2B47  3C D8          .byte $3c, $d8, $f0, $e0
1051 2B49  F0 E0 
1052 2B4B  C0 C0          .byte $c0, $c0, $00, $3f
1052 2B4D  00 3F 
1053 2B4F  7F 7F          .byte $7f, $7f, $6f, $6f
1053 2B51  6F 6F 
1054 2B53  6F 6F          .byte $6f, $6f, $6f, $fc
1054 2B55  6F FC 
1055 2B57  FE FE          .byte $fe, $fe, $f6, $f6
1055 2B59  F6 F6 
1056 2B5B  F6 F6          .byte $f6, $f6, $f6, $60
1056 2B5D  F6 60 
1057 2B5F  6F 0F          .byte $6f, $0f, $6e, $6e
1057 2B61  6E 6E 
1058 2B63  0E 0E          .byte $0e, $0e, $0e, $06
1058 2B65  0E 06 
1059 2B67  F6 F0          .byte $f6, $f0, $76, $76
1059 2B69  76 76 
1060 2B6B  70 70          .byte $70, $70, $70, $0e
1060 2B6D  70 0E 
1061 2B6F  0E 0E          .byte $0e, $0e, $0e, $0e
1061 2B71  0E 0E 
1062 2B73  0E 1E          .byte $0e, $1e, $3e, $70
1062 2B75  3E 70 
1063 2B77  70 70          .byte $70, $70, $70, $70
1063 2B79  70 70 
1064 2B7B  70 78          .byte $70, $78, $7c, $8e
1064 2B7D  7C 8E 
1065 2B7F  09 8A          .byte $09, $8a, $0d, $86
1065 2B81  0D 86 
1066 2B83  11 82          .byte $11, $82, $15, $d8
1066 2B85  15 D8 
1067 2B87  A5 8F          .byte $a5, $8f, $f0, $05
1067 2B89  F0 05 
1068 2B8B  C6 8F          .byte $c6, $8f, $4c, $c6
1068 2B8D  4C C6 
1069 2B8F  2B A5          .byte $2b, $a5, $90, $49
1069 2B91  90 49 
1070 2B93  01 85          .byte $01, $85, $90, $d0
1070 2B95  90 D0 
1071 2B97  1B A6          .byte $1b, $a6, $9d, $bd
1071 2B99  9D BD 
1072 2B9B  E3 26          .byte $e3, $26, $f0, $21
1072 2B9D  F0 21 
1073 2B9F  8D 04          .byte $8d, $04, $d2, $a9
1073 2BA1  D2 A9 
1074 2BA3  AA 8D          .byte $aa, $8d, $05, $d2
1074 2BA5  05 D2 
1075 2BA7  E8 BD          .byte $e8, $bd, $e3, $26
1075 2BA9  E3 26 
1076 2BAB  85 8F          .byte $85, $8f, $e8, $86
1076 2BAD  E8 86 
1077 2BAF  9D 4C          .byte $9d, $4c, $c6, $2b
1077 2BB1  C6 2B 
1078 2BB3  A9 00          .byte $a9, $00, $8d, $05
1078 2BB5  8D 05 
1079 2BB7  D2 A6          .byte $d2, $a6, $9d, $ca
1079 2BB9  9D CA 
1080 2BBB  BD E3          .byte $bd, $e3, $26, $85
1080 2BBD  26 85 
1081 2BBF  8F AD          .byte $8f, $ad, $78, $02
1081 2BC1  78 02 
1082 2BC3  C9 07          .byte $c9, $07, $f0, $19
1082 2BC5  F0 19 
1083 2BC7  C9 0B          .byte $c9, $0b, $d0, $2b
1083 2BC9  D0 2B 
1084 2BCB  A5 9C          .byte $a5, $9c, $c9, $32
1084 2BCD  C9 32 
1085 2BCF  90 21          .byte $90, $21, $a4, $9a
1085 2BD1  A4 9A 
1086 2BD3  C0 05          .byte $c0, $05, $90, $02
1086 2BD5  90 02 
1087 2BD7  C6 9C          .byte $c6, $9c, $c6, $9c
1087 2BD9  C6 9C 
1088 2BDB  C6 9C          .byte $c6, $9c, $4c, $f8
1088 2BDD  4C F8 
1089 2BDF  2B A5          .byte $2b, $a5, $9c, $c9
1089 2BE1  9C C9 
1090 2BE3  C3 B0          .byte $c3, $b0, $0c, $a4
1090 2BE5  0C A4 
1091 2BE7  9A C0          .byte $9a, $c0, $05, $90
1091 2BE9  05 90 
1092 2BEB  02 E6          .byte $02, $e6, $9c, $e6
1092 2BED  9C E6 
1093 2BEF  9C E6          .byte $9c, $e6, $9c, $a9
1093 2BF1  9C A9 
1094 2BF3  00 85          .byte $00, $85, $4d, $a5
1094 2BF5  4D A5 
1095 2BF7  9C 8D          .byte $9c, $8d, $01, $d0
1095 2BF9  01 D0 
1096 2BFB  18 69          .byte $18, $69, $05, $8d
1096 2BFD  05 8D 
1097 2BFF  00 D0          .byte $00, $d0, $a5, $84
1097 2C01  A5 84 
1098 2C03  F0 2B          .byte $f0, $2b, $e6, $8e
1098 2C05  E6 8E 
1099 2C07  A5 8E          .byte $a5, $8e, $c9, $02
1099 2C09  C9 02 
1100 2C0B  D0 23          .byte $d0, $23, $a6, $8d
1100 2C0D  A6 8D 
1101 2C0F  BD 84          .byte $bd, $84, $2b, $8d
1101 2C11  2B 8D 
1102 2C13  03 D2          .byte $03, $d2, $e8, $bd
1102 2C15  E8 BD 
1103 2C17  84 2B          .byte $84, $2b, $8d, $02
1103 2C19  8D 02 
1104 2C1B  D2 A9          .byte $d2, $a9, $00, $85
1104 2C1D  00 85 
1105 2C1F  8E E8          .byte $8e, $e8, $86, $8d
1105 2C21  86 8D 
1106 2C23  E0 08          .byte $e0, $08, $d0, $09
1106 2C25  D0 09 
1107 2C27  A9 00          .byte $a9, $00, $8d, $03
1107 2C29  8D 03 
1108 2C2B  D2 85          .byte $d2, $85, $8d, $85
1108 2C2D  8D 85 
1109 2C2F  84 A5          .byte $84, $a5, $82, $f0
1109 2C31  82 F0 
1110 2C33  37 E6          .byte $37, $e6, $85, $a5
1110 2C35  85 A5 
1111 2C37  85 C9          .byte $85, $c9, $01, $d0
1111 2C39  01 D0 
1112 2C3B  2F A5          .byte $2f, $a5, $83, $d0
1112 2C3D  83 D0 
1113 2C3F  04 A9          .byte $04, $a9, $f0, $85
1113 2C41  F0 85 
1114 2C43  8C A9          .byte $8c, $a9, $aa, $8d
1114 2C45  AA 8D 
1115 2C47  01 D2          .byte $01, $d2, $a5, $8c
1115 2C49  A5 8C 
1116 2C4B  8D 00          .byte $8d, $00, $d2, $f0
1116 2C4D  D2 F0 
1117 2C4F  0F 38          .byte $0f, $38, $e9, $28
1117 2C51  E9 28 
1118 2C53  85 8C          .byte $85, $8c, $a9, $00
1118 2C55  A9 00 
1119 2C57  85 85          .byte $85, $85, $a9, $01
1119 2C59  A9 01 
1120 2C5B  85 83          .byte $85, $83, $d0, $0c
1120 2C5D  D0 0C 
1121 2C5F  A9 F0          .byte $a9, $f0, $85, $8c
1121 2C61  85 8C 
1122 2C63  A9 00          .byte $a9, $00, $85, $82
1122 2C65  85 82 
1123 2C67  85 83          .byte $85, $83, $85, $85
1123 2C69  85 85 
1124 2C6B  4C 62          .byte $4c, $62, $e4
1124 2C6D  E4 
1125 2C6E  A9 07    L2C74   LDA #$07
1126 2C70  A2 2B            LDX #$2b
1127 2C72  A0 8C            LDY #$8c
1128 2C74  4C 5C E4         JMP SETVBV
1129 2C77  A9 00    L2C7D   LDA #$00
1130 2C79  85 92            STA MEOLFLG
1131 2C7B  A6 92    L2C81   LDX MEOLFLG
1132 2C7D  BD 00 06         LDA $0600,X
1133 2C80  D0 09            BNE L2c91
1134 2C82  E8               INX
1135 2C83  E8               INX
1136 2C84  86 92            STX MEOLFLG
1137 2C86  E0 0C            CPX #$0c
1138 2C88  90 F1            BCC L2c81
1139 2C8A  60               RTS
1140 2C8B  BD 00 06 L2C91   LDA $0600,X
1141 2C8E  85 86            STA VVTP
1142 2C90  E8               INX
1143 2C91  BD 00 06         LDA $0600,X
1144 2C94  85 9E            STA CPC+1
1145 2C96  C9 61            CMP #$61
1146 2C98  90 0E            BCC L2cae
1147 2C9A  CA               DEX
1148 2C9B  A9 00            LDA #$00
1149 2C9D  9D 00 06         STA $0600,X
1150 2CA0  E8               INX
1151 2CA1  9D 00 06         STA $0600,X
1152 2CA4  E6 9F            INC LLNGTH
1153 2CA6  D0 03            BNE L2cb1
1154 2CA8  FE 00 06 L2CAE   INC $0600,X
1155 2CAB  E8       L2CB1   INX
1156 2CAC  86 92            STX MEOLFLG
1157 2CAE  A5 A1            LDA TSLNUM+1
1158 2CB0  85 87            STA VVTP+1
1159 2CB2  20 C2 2C         JSR L2CC8
1160 2CB5  A6 92            LDX MEOLFLG
1161 2CB7  E0 0C            CPX #$0c
1162 2CB9  90 C0            BCC L2c81
1163 2CBB  60               RTS
1164 2CBC  85 87    L2CC2   STA VVTP+1
1165 2CBE  84 9E            STY CPC+1
1166 2CC0  86 86            STX VVTP
1167 2CC2  A9 01    L2CC8   LDA #$01
1168 2CC4  85 8A            STA STMCUR
1169 2CC6  A9 32            LDA #$32
1170 2CC8  85 A8            STA STINDEX
1171 2CCA  A5 8A    L2CD0   LDA STMCUR
1172 2CCC  D0 04            BNE L2cd8
1173 2CCE  E6 86            INC VVTP
1174 2CD0  E6 87            INC VVTP+1
1175 2CD2  A9 00    L2CD8   LDA #$00
1176 2CD4  85 89            STA STMTAB+1
1177 2CD6  85 A0            STA TSLNUM
1178 2CD8  85 A6            STA DIRFLG
1179 2CDA  85 95            STA POKADR
1180 2CDC  A5 9E            LDA CPC+1
1181 2CDE  0A               ASL A
1182 2CDF  26 95            ROL POKADR
1183 2CE1  0A               ASL A
1184 2CE2  26 95            ROL POKADR
1185 2CE4  0A               ASL A
1186 2CE5  26 95            ROL POKADR
1187 2CE7  A6 95            LDX POKADR
1188 2CE9  86 A6            STX DIRFLG
1189 2CEB  85 A5            STA ECSIZE+1
1190 2CED  0A               ASL A
1191 2CEE  26 95            ROL POKADR
1192 2CF0  0A               ASL A
1193 2CF1  26 95            ROL POKADR
1194 2CF3  18               CLC
1195 2CF4  65 A5            ADC ECSIZE+1
1196 2CF6  85 A5            STA ECSIZE+1
1197 2CF8  A5 95            LDA POKADR
1198 2CFA  65 A6            ADC DIRFLG
1199 2CFC  85 A6            STA DIRFLG
1200 2CFE  A5 A5            LDA ECSIZE+1
1201 2D00  18               CLC
1202 2D01  65 86            ADC VVTP
1203 2D03  85 A5            STA ECSIZE+1
1204 2D05  90 02            BCC L2d0f
1205 2D07  E6 A6            INC DIRFLG
1206 2D09  18       L2D0F   CLC
1207 2D0A  A5 A5            LDA ECSIZE+1
1208 2D0C  69 00            ADC #$00
1209 2D0E  85 A5            STA ECSIZE+1
1210 2D10  A9 10            LDA #$10
1211 2D12  65 A6            ADC DIRFLG
1212 2D14  85 A6            STA DIRFLG
1213 2D16  A9 00            LDA #$00
1214 2D18  85 95            STA POKADR
1215 2D1A  A5 87            LDA VVTP+1
1216 2D1C  0A               ASL A
1217 2D1D  0A               ASL A
1218 2D1E  26 89            ROL STMTAB+1
1219 2D20  0A               ASL A
1220 2D21  26 89            ROL STMTAB+1
1221 2D23  18               CLC
1222 2D24  65 87            ADC VVTP+1
1223 2D26  85 A7            STA STMLBD
1224 2D28  A5 89            LDA STMTAB+1
1225 2D2A  65 A8            ADC STINDEX
1226 2D2C  85 A8            STA STINDEX
1227 2D2E  A4 A0    L2D34   LDY TSLNUM
1228 2D30  B1 A7            LDA (STMLBD),Y
1229 2D32  A0 00            LDY #$00
1230 2D34  91 A5            STA (ECSIZE+1),Y
1231 2D36  A5 A5            LDA ECSIZE+1
1232 2D38  18               CLC
1233 2D39  69 28            ADC #$28
1234 2D3B  85 A5            STA ECSIZE+1
1235 2D3D  90 08            BCC L2d4d
1236 2D3F  E6 A6            INC DIRFLG
1237 2D41  A5 A6            LDA DIRFLG
1238 2D43  C9 20            CMP #$20
1239 2D45  B0 08            BCS L2d55
1240 2D47  E6 A0    L2D4D   INC TSLNUM
1241 2D49  A5 A0            LDA TSLNUM
1242 2D4B  C9 09            CMP #$09
1243 2D4D  D0 DF            BNE L2d34
1244 2D4F  C6 8A    L2D55   DEC STMCUR
1245 2D51  30 03            BMI L2d5c
1246 2D53  4C CA 2C         JMP L2CD0
1247 2D56  60       L2D5C   RTS
1248 2D57  A5 9C    L2D5D   LDA MVTA+1
1249 2D59  38               SEC
1250 2D5A  E9 24            SBC #$24
1251 2D5C  4A               LSR A
1252 2D5D  4A               LSR A
1253 2D5E  38               SEC
1254 2D5F  E9 04            SBC #$04
1255 2D61  85 91            STA MEMTOP+1
1256 2D63  A0 00            LDY #$00
1257 2D65  A2 00            LDX #$00
1258 2D67  BD 00 06 L2D6D   LDA $0600,X
1259 2D6A  F0 04            BEQ L2d76
1260 2D6C  C5 91            CMP MEMTOP+1
1261 2D6E  F0 10            BEQ L2d86
1262 2D70  E8       L2D76   INX
1263 2D71  E8               INX
1264 2D72  E0 0C            CPX #$0c
1265 2D74  D0 F1            BNE L2d6d
1266 2D76  E6 91            INC MEMTOP+1
1267 2D78  C8               INY
1268 2D79  A2 00            LDX #$00
1269 2D7B  C0 06            CPY #$06
1270 2D7D  D0 E8            BNE L2d6d
1271 2D7F  60               RTS
1272 2D80  E8       L2D86   INX
1273 2D81  BD 00 06         LDA $0600,X
1274 2D84  CA               DEX
1275 2D85  C9 4E            CMP #$4e
1276 2D87  90 E7            BCC L2d76
1277 2D89  85 9E            STA CPC+1
1278 2D8B  BD 00 06         LDA $0600,X
1279 2D8E  85 86            STA VVTP
1280 2D90  A9 0F            LDA #$0f
1281 2D92  85 87            STA VVTP+1
1282 2D94  A9 00            LDA #$00
1283 2D96  9D 00 06         STA $0600,X
1284 2D99  9D 01 06         STA $0601,X
1285 2D9C  4C C2 2C         JMP L2CC8
1286 2D9F  A0 00    L2DA5   LDY #$00
1287 2DA1  98               TYA
1288 2DA2  91 80    L2DA8   STA (LOMEM),Y
1289 2DA4  C8               INY
1290 2DA5  D0 FB            BNE L2da8
1291 2DA7  E6 81            INC LOMEM+1
1292 2DA9  CA               DEX
1293 2DAA  D0 F6            BNE L2da8
1294 2DAC  60               RTS
1295 2DAD  20 70  L2DB3   .byte $20, $70, $f0, $f2
1295 2DAF  F0 F2 
1296 2DB1  F2 FE          .byte $f2, $fe, $7e, $3e
1296 2DB3  7E 3E 
1297 2DB5  0F 0F          .byte $0f, $0f, $0f, $0f
1297 2DB7  0F 0F 
1298 2DB9  0F 0F  L2DBF   .byte $0f, $0f, $0f, $ff
1298 2DBB  0F FF 
1299 2DBD  FF FF          .byte $ff, $ff, $7e, $7e
1299 2DBF  7E 7E 
1300 2DC1  7E 7E          .byte $7e, $7e, $7e, $7e
1300 2DC3  7E 7E 
1301 2DC5  7E 00          .byte $7e, $00, $00, $00
1301 2DC7  00 00 
1302 2DC9  00 00  L2DCF   .byte $00, $00, $00, $78
1302 2DCB  00 78 
1303 2DCD  F8 80          .byte $f8, $80, $80, $00
1303 2DCF  80 00 
1304 2DD1  00 00          .byte $00, $00, $00, $00
1304 2DD3  00 00 
1305 2DD5  00 00          .byte $00, $00, $00, $00
1305 2DD7  00 00 
1306 2DD9  00 00          .byte $00, $00, $00, $00
1306 2DDB  00 00 

Source: hiscore.s
4 3689  A9 00    	LDA #<hiscore_dlist
5 368B  8D 30 02 	STA SDLSTL
6 368E  A9 36    	LDA #>hiscore_dlist
7 3690  8D 31 02 	STA SDLSTH
9 3693  4C 93 36 LO	JMP LO
11 3696  20 24 24         JSR L2424
12 3699  AE 6F 26         LDX L2675
13 369C  AC 70 26         LDY L2675+1
14 369F  60       	RTS
